; Function Attrs: nounwind uwtable
define float @b2Shape_GetFriction(i64 %0) local_unnamed_addr #0 {
  %.sroa.2.0.extract.shift = lshr i64 %0, 32
  %2 = trunc nuw i64 %.sroa.2.0.extract.shift to i32
  %3 = and i32 %2, 65535
  %4 = tail call ptr @b2GetWorld(i32 noundef %3) #10
  %5 = getelementptr i8, ptr %4, i64 1256
  %.val = load ptr, ptr %5, align 8, !tbaa !14
  %6 = shl i64 %0, 32
  %sext.i = add i64 %6, -4294967296
  %7 = ashr exact i64 %sext.i, 32
  %8 = getelementptr inbounds %struct.b2Shape, ptr %.val, i64 %7, i32 7
  %9 = load float, ptr %8, align 4, !tbaa !174
  ret float %9
}